target datalayout = "e-m:e-p270:32:32-p271:32:32-p272:64:64-i64:64-i128:128-f80:128-n8:16:32:64-S128"
target triple = "x86_64-pc-linux-gnu"

%"class.std::stack" = type { %"class.std::deque" }
%"class.std::deque" = type { %"class.std::_Deque_base" }
%"class.std::_Deque_base" = type { %"struct.std::_Deque_base<Json::Value *, std::allocator<Json::Value *>>::_Deque_impl" }
%"struct.std::_Deque_base<Json::Value *, std::allocator<Json::Value *>>::_Deque_impl" = type { %"struct.std::_Deque_base<Json::Value *, std::allocator<Json::Value *>>::_Deque_impl_data" }
%"struct.std::_Deque_base<Json::Value *, std::allocator<Json::Value *>>::_Deque_impl_data" = type { ptr, i64, %"struct.std::_Deque_iterator", %"struct.std::_Deque_iterator" }
%"struct.std::_Deque_iterator" = type { ptr, ptr, ptr, ptr }
%"class.std::__cxx11::basic_string" = type { %"struct.std::__cxx11::basic_string<char>::_Alloc_hider", i64, %union.anon }
%"struct.std::__cxx11::basic_string<char>::_Alloc_hider" = type { ptr }
%union.anon = type { i64, [8 x i8] }
%"class.Json::OurFeatures" = type { i8, i8, i8, i8, i8, i8, i8, i8, i8, i8, i64 }
%"class.Json::OurReader" = type <{ %"class.std::stack", %"class.std::deque.17", %"class.std::__cxx11::basic_string", ptr, ptr, ptr, ptr, ptr, i8, [7 x i8], %"class.std::__cxx11::basic_string", %"class.Json::OurFeatures", i8, [7 x i8] }>
%"class.std::deque.17" = type { %"class.std::_Deque_base.18" }
%"class.std::_Deque_base.18" = type { %"struct.std::_Deque_base<Json::OurReader::ErrorInfo, std::allocator<Json::OurReader::ErrorInfo>>::_Deque_impl" }
%"struct.std::_Deque_base<Json::OurReader::ErrorInfo, std::allocator<Json::OurReader::ErrorInfo>>::_Deque_impl" = type { %"struct.std::_Deque_base<Json::OurReader::ErrorInfo, std::allocator<Json::OurReader::ErrorInfo>>::_Deque_impl_data" }
%"struct.std::_Deque_base<Json::OurReader::ErrorInfo, std::allocator<Json::OurReader::ErrorInfo>>::_Deque_impl_data" = type { ptr, i64, %"struct.std::_Deque_iterator.22", %"struct.std::_Deque_iterator.22" }
%"struct.std::_Deque_iterator.22" = type { ptr, ptr, ptr, ptr }

; Function Attrs: mustprogress nounwind uwtable
define dso_local void @_ZN4Json9OurReader10skipSpacesEv(ptr noundef nonnull align 8 dereferenceable(297) %0) #4 align 2 {
  %2 = alloca ptr, align 8
  %3 = alloca i8, align 1
  store ptr %0, ptr %2, align 8
  %4 = load ptr, ptr %2, align 8
  br label %5

5:                                                ; preds = %35, %1
  %6 = getelementptr inbounds %"class.Json::OurReader", ptr %4, i32 0, i32 5
  %7 = load ptr, ptr %6, align 8
  %8 = getelementptr inbounds %"class.Json::OurReader", ptr %4, i32 0, i32 4
  %9 = load ptr, ptr %8, align 8
  %10 = icmp ne ptr %7, %9
  br i1 %10, label %11, label %36

11:                                               ; preds = %5
  %12 = getelementptr inbounds %"class.Json::OurReader", ptr %4, i32 0, i32 5
  %13 = load ptr, ptr %12, align 8
  %14 = load i8, ptr %13, align 1
  store i8 %14, ptr %3, align 1
  %15 = load i8, ptr %3, align 1
  %16 = sext i8 %15 to i32
  %17 = icmp eq i32 %16, 32
  br i1 %17, label %30, label %18

18:                                               ; preds = %11
  %19 = load i8, ptr %3, align 1
  %20 = sext i8 %19 to i32
  %21 = icmp eq i32 %20, 9
  br i1 %21, label %30, label %22

22:                                               ; preds = %18
  %23 = load i8, ptr %3, align 1
  %24 = sext i8 %23 to i32
  %25 = icmp eq i32 %24, 13
  br i1 %25, label %30, label %26

26:                                               ; preds = %22
  %27 = load i8, ptr %3, align 1
  %28 = sext i8 %27 to i32
  %29 = icmp eq i32 %28, 10
  br i1 %29, label %30, label %34

30:                                               ; preds = %26, %22, %18, %11
  %31 = getelementptr inbounds %"class.Json::OurReader", ptr %4, i32 0, i32 5
  %32 = load ptr, ptr %31, align 8
  %33 = getelementptr inbounds i8, ptr %32, i32 1
  store ptr %33, ptr %31, align 8
  br label %35

34:                                               ; preds = %26
  br label %36

35:                                               ; preds = %30
  br label %5, !llvm.loop !34

36:                                               ; preds = %34, %5
  ret void
}