; Function Attrs: mustprogress nofree norecurse nosync nounwind memory(read, argmem: readwrite, inaccessiblemem: none) uwtable
define dso_local void @_ZN4Json9OurReader10skipSpacesEv(ptr nocapture noundef nonnull align 8 dereferenceable(297) %0) local_unnamed_addr #10 align 2 {
  %2 = getelementptr inbounds i8, ptr %0, i64 208
  %3 = getelementptr inbounds i8, ptr %0, i64 200
  %4 = load ptr, ptr %3, align 8
  %.promoted = load ptr, ptr %2, align 8
  %.not12 = icmp eq ptr %.promoted, %4
  br i1 %.not12, label %._crit_edge, label %.lr.ph

.lr.ph:                                           ; preds = %1, %7
  %5 = phi ptr [ %8, %7 ], [ %.promoted, %1 ]
  %6 = load i8, ptr %5, align 1
  switch i8 %6, label %._crit_edge [
    i8 32, label %7
    i8 13, label %7
    i8 10, label %7
    i8 9, label %7
  ]

7:                                                ; preds = %.lr.ph, %.lr.ph, %.lr.ph, %.lr.ph
  %8 = getelementptr inbounds i8, ptr %5, i64 1
  store ptr %8, ptr %2, align 8
  %.not = icmp eq ptr %8, %4
  br i1 %.not, label %._crit_edge, label %.lr.ph, !llvm.loop !269

._crit_edge:                                      ; preds = %7, %.lr.ph, %1
  ret void
}